; Function Attrs: mustprogress nounwind uwtable
define hidden void @_ZN20JfrAddRefCountedBlobD2Ev(ptr nocapture noundef nonnull readonly align 1 dereferenceable(1) %0) unnamed_addr #0 align 2 {
  %2 = load i8, ptr %0, align 1
  %3 = trunc i8 %2 to i1
  br i1 %3, label %4, label %_ZN26JfrReferenceCountedStorage5resetEv.exit

4:                                                ; preds = %1
  %5 = load ptr, ptr @_ZN26JfrReferenceCountedStorage10_type_setsE, align 8
  %.not.i = icmp eq ptr %5, null
  br i1 %.not.i, label %_ZN26JfrReferenceCountedStorage5resetEv.exit, label %6

6:                                                ; preds = %4
  store ptr null, ptr @_ZN26JfrReferenceCountedStorage10_type_setsE, align 8
  %7 = getelementptr inbounds i8, ptr %5, i64 8
  %8 = tail call noundef i64 asm sideeffect "lock xaddq $0,($2)", "=r,0,r,~{cc},~{memory},~{dirflag},~{fpsr},~{flags}"(i64 -1, ptr nonnull %7) #6, !srcloc !6
  %9 = icmp eq i64 %8, 1
  br i1 %9, label %10, label %_ZN26JfrReferenceCountedStorage5resetEv.exit

10:                                               ; preds = %6
  tail call void asm sideeffect "", "~{memory},~{dirflag},~{fpsr},~{flags}"() #6, !srcloc !7
  %11 = load ptr, ptr %5, align 8
  %12 = icmp eq ptr %11, null
  br i1 %12, label %_ZN15RefCountPointerI7JfrBlob23MultiThreadedRefCounterED2Ev.exit.i.i.i, label %13

13:                                               ; preds = %10
  tail call void @_ZN7JfrBlobD1Ev(ptr noundef nonnull align 8 dereferenceable(25) %11) #6
  tail call void @_ZN11JfrCHeapObjdlEPvm(ptr noundef nonnull %11, i64 noundef 32) #6
  br label %_ZN15RefCountPointerI7JfrBlob23MultiThreadedRefCounterED2Ev.exit.i.i.i

_ZN15RefCountPointerI7JfrBlob23MultiThreadedRefCounterED2Ev.exit.i.i.i: ; preds = %13, %10
  tail call void @_ZN11JfrCHeapObjdlEPvm(ptr noundef nonnull %5, i64 noundef 16) #6
  br label %_ZN26JfrReferenceCountedStorage5resetEv.exit

_ZN26JfrReferenceCountedStorage5resetEv.exit:     ; preds = %_ZN15RefCountPointerI7JfrBlob23MultiThreadedRefCounterED2Ev.exit.i.i.i, %6, %4, %1
  ret void
}